target datalayout = "e-m:e-p270:32:32-p271:32:32-p272:64:64-i64:64-i128:128-f80:128-n8:16:32:64-S128"
target triple = "x86_64-pc-linux-gnu"

@.str.396 = private unnamed_addr constant [27 x i8] c"../openssl/apps/s_client.c\00", align 1
@.str.581 = private unnamed_addr constant [10 x i8] c"hexdecode\00", align 1

; Function Attrs: nounwind uwtable
define internal i64 @hexdecode(ptr noundef %0, ptr noundef %1) #0 {
  %3 = alloca i64, align 8
  %4 = alloca ptr, align 8
  %5 = alloca ptr, align 8
  %6 = alloca ptr, align 8
  %7 = alloca ptr, align 8
  %8 = alloca ptr, align 8
  %9 = alloca ptr, align 8
  %10 = alloca i8, align 1
  %11 = alloca i32, align 4
  %12 = alloca i32, align 4
  %13 = alloca i32, align 4
  store ptr %0, ptr %4, align 8, !tbaa !8
  store ptr %1, ptr %5, align 8, !tbaa !44
  call void @llvm.lifetime.start.p0(i64 8, ptr %6) #10
  %14 = load ptr, ptr %5, align 8, !tbaa !44
  store ptr %14, ptr %6, align 8, !tbaa !8
  call void @llvm.lifetime.start.p0(i64 8, ptr %7) #10
  %15 = load ptr, ptr %4, align 8, !tbaa !8
  %16 = load ptr, ptr %15, align 8, !tbaa !29
  store ptr %16, ptr %7, align 8, !tbaa !29
  call void @llvm.lifetime.start.p0(i64 8, ptr %8) #10
  %17 = load ptr, ptr %7, align 8, !tbaa !29
  %18 = call i64 @strlen(ptr noundef %17) #11
  %19 = udiv i64 %18, 2
  %20 = call ptr @app_malloc(i64 noundef %19, ptr noundef @.str.581)
  store ptr %20, ptr %8, align 8, !tbaa !29
  call void @llvm.lifetime.start.p0(i64 8, ptr %9) #10
  %21 = load ptr, ptr %8, align 8, !tbaa !29
  store ptr %21, ptr %9, align 8, !tbaa !29
  call void @llvm.lifetime.start.p0(i64 1, ptr %10) #10
  call void @llvm.lifetime.start.p0(i64 4, ptr %11) #10
  store i32 0, ptr %11, align 4, !tbaa !4
  %22 = load ptr, ptr %8, align 8, !tbaa !29
  %23 = icmp eq ptr %22, null
  br i1 %23, label %24, label %25

24:                                               ; preds = %2
  store i64 -1, ptr %3, align 8
  store i32 1, ptr %12, align 4
  br label %92

25:                                               ; preds = %2
  store i8 0, ptr %10, align 1, !tbaa !39
  br label %26

26:                                               ; preds = %75, %25
  %27 = load ptr, ptr %7, align 8, !tbaa !29
  %28 = load i8, ptr %27, align 1, !tbaa !39
  %29 = icmp ne i8 %28, 0
  br i1 %29, label %30, label %78

30:                                               ; preds = %26
  call void @llvm.lifetime.start.p0(i64 4, ptr %13) #10
  %31 = call ptr @__ctype_b_loc() #12
  %32 = load ptr, ptr %31, align 8, !tbaa !52
  %33 = load ptr, ptr %7, align 8, !tbaa !29
  %34 = load i8, ptr %33, align 1, !tbaa !39
  %35 = zext i8 %34 to i32
  %36 = sext i32 %35 to i64
  %37 = getelementptr inbounds i16, ptr %32, i64 %36
  %38 = load i16, ptr %37, align 2, !tbaa !54
  %39 = zext i16 %38 to i32
  %40 = and i32 %39, 8192
  %41 = icmp ne i32 %40, 0
  br i1 %41, label %42, label %43

42:                                               ; preds = %30
  store i32 4, ptr %12, align 4
  br label %72

43:                                               ; preds = %30
  %44 = load ptr, ptr %7, align 8, !tbaa !29
  %45 = load i8, ptr %44, align 1, !tbaa !39
  %46 = call i32 @OPENSSL_hexchar2int(i8 noundef zeroext %45)
  store i32 %46, ptr %13, align 4, !tbaa !4
  %47 = load i32, ptr %13, align 4, !tbaa !4
  %48 = icmp slt i32 %47, 0
  br i1 %48, label %49, label %51

49:                                               ; preds = %43
  %50 = load ptr, ptr %8, align 8, !tbaa !29
  call void @CRYPTO_free(ptr noundef %50, ptr noundef @.str.396, i32 noundef 362)
  store i64 0, ptr %3, align 8
  store i32 1, ptr %12, align 4
  br label %72

51:                                               ; preds = %43
  %52 = load i32, ptr %13, align 4, !tbaa !4
  %53 = trunc i32 %52 to i8
  %54 = sext i8 %53 to i32
  %55 = load i8, ptr %10, align 1, !tbaa !39
  %56 = zext i8 %55 to i32
  %57 = or i32 %56, %54
  %58 = trunc i32 %57 to i8
  store i8 %58, ptr %10, align 1, !tbaa !39
  %59 = load i32, ptr %11, align 4, !tbaa !4
  %60 = xor i32 %59, 1
  store i32 %60, ptr %11, align 4, !tbaa !4
  %61 = icmp eq i32 %60, 0
  br i1 %61, label %62, label %66

62:                                               ; preds = %51
  %63 = load i8, ptr %10, align 1, !tbaa !39
  %64 = load ptr, ptr %9, align 8, !tbaa !29
  %65 = getelementptr inbounds nuw i8, ptr %64, i32 1
  store ptr %65, ptr %9, align 8, !tbaa !29
  store i8 %63, ptr %64, align 1, !tbaa !39
  store i8 0, ptr %10, align 1, !tbaa !39
  br label %71

66:                                               ; preds = %51
  %67 = load i8, ptr %10, align 1, !tbaa !39
  %68 = zext i8 %67 to i32
  %69 = shl i32 %68, 4
  %70 = trunc i32 %69 to i8
  store i8 %70, ptr %10, align 1, !tbaa !39
  br label %71

71:                                               ; preds = %66, %62
  store i32 0, ptr %12, align 4
  br label %72

72:                                               ; preds = %71, %49, %42
  call void @llvm.lifetime.end.p0(i64 4, ptr %13) #10
  %73 = load i32, ptr %12, align 4
  switch i32 %73, label %92 [
    i32 0, label %74
    i32 4, label %75
  ]

74:                                               ; preds = %72
  br label %75

75:                                               ; preds = %74, %72
  %76 = load ptr, ptr %7, align 8, !tbaa !29
  %77 = getelementptr inbounds nuw i8, ptr %76, i32 1
  store ptr %77, ptr %7, align 8, !tbaa !29
  br label %26, !llvm.loop !161

78:                                               ; preds = %26
  %79 = load i32, ptr %11, align 4, !tbaa !4
  %80 = icmp ne i32 %79, 0
  br i1 %80, label %81, label %83

81:                                               ; preds = %78
  %82 = load ptr, ptr %8, align 8, !tbaa !29
  call void @CRYPTO_free(ptr noundef %82, ptr noundef @.str.396, i32 noundef 374)
  store i64 0, ptr %3, align 8
  store i32 1, ptr %12, align 4
  br label %92

83:                                               ; preds = %78
  %84 = load ptr, ptr %7, align 8, !tbaa !29
  %85 = load ptr, ptr %4, align 8, !tbaa !8
  store ptr %84, ptr %85, align 8, !tbaa !29
  %86 = load ptr, ptr %9, align 8, !tbaa !29
  %87 = load ptr, ptr %8, align 8, !tbaa !29
  %88 = load ptr, ptr %6, align 8, !tbaa !8
  store ptr %87, ptr %88, align 8, !tbaa !29
  %89 = ptrtoint ptr %86 to i64
  %90 = ptrtoint ptr %87 to i64
  %91 = sub i64 %89, %90
  store i64 %91, ptr %3, align 8
  store i32 1, ptr %12, align 4
  br label %92

92:                                               ; preds = %83, %81, %72, %24
  call void @llvm.lifetime.end.p0(i64 4, ptr %11) #10
  call void @llvm.lifetime.end.p0(i64 1, ptr %10) #10
  call void @llvm.lifetime.end.p0(i64 8, ptr %9) #10
  call void @llvm.lifetime.end.p0(i64 8, ptr %8) #10
  call void @llvm.lifetime.end.p0(i64 8, ptr %7) #10
  call void @llvm.lifetime.end.p0(i64 8, ptr %6) #10
  %93 = load i64, ptr %3, align 8
  ret i64 %93
}