; Function Attrs: nounwind uwtable
define internal i64 @hexdecode(ptr noundef captures(none) %0, ptr noundef writeonly captures(none) %1) #0 {
  %3 = load ptr, ptr %0, align 8, !tbaa !11
  %4 = tail call i64 @strlen(ptr noundef nonnull dereferenceable(1) %3) #17
  %5 = lshr i64 %4, 1
  %6 = tail call ptr @app_malloc(i64 noundef %5, ptr noundef nonnull @.str.581) #15
  %7 = icmp eq ptr %6, null
  br i1 %7, label %39, label %.preheader

.preheader:                                       ; preds = %2
  %8 = load i8, ptr %3, align 1, !tbaa !25
  %.not50 = icmp eq i8 %8, 0
  br i1 %.not50, label %._crit_edge.thread, label %.lr.ph

.lr.ph:                                           ; preds = %.preheader
  %9 = tail call ptr @__ctype_b_loc() #16
  br label %.outer

.outer:                                           ; preds = %.thread, %.lr.ph
  %.ph = phi i8 [ %33, %.thread ], [ %8, %.lr.ph ]
  %.03152.ph = phi ptr [ %31, %.thread ], [ %6, %.lr.ph ]
  %.03451.ph = phi ptr [ %32, %.thread ], [ %3, %.lr.ph ]
  br label %10

10:                                               ; preds = %.outer, %27
  %11 = phi i8 [ %29, %27 ], [ %.ph, %.outer ]
  %.02654 = phi i32 [ %.127.ph, %27 ], [ 0, %.outer ]
  %.02853 = phi i8 [ %.129.ph, %27 ], [ 0, %.outer ]
  %.03451 = phi ptr [ %28, %27 ], [ %.03451.ph, %.outer ]
  %12 = load ptr, ptr %9, align 8, !tbaa !26
  %13 = zext i8 %11 to i64
  %14 = getelementptr inbounds nuw i16, ptr %12, i64 %13
  %15 = load i16, ptr %14, align 2, !tbaa !30
  %16 = and i16 %15, 8192
  %.not39 = icmp eq i16 %16, 0
  br i1 %.not39, label %17, label %27

17:                                               ; preds = %10
  %18 = tail call i32 @OPENSSL_hexchar2int(i8 noundef zeroext %11) #15
  %19 = icmp slt i32 %18, 0
  br i1 %19, label %26, label %20

20:                                               ; preds = %17
  %21 = trunc i32 %18 to i8
  %22 = icmp eq i32 %.02654, 1
  br i1 %22, label %.thread, label %23

23:                                               ; preds = %20
  %24 = xor i32 %.02654, 1
  %25 = shl i8 %21, 4
  br label %27

26:                                               ; preds = %17
  tail call void @CRYPTO_free(ptr noundef nonnull %6, ptr noundef nonnull @.str.396, i32 noundef 362) #15
  br label %39

27:                                               ; preds = %10, %23
  %.129.ph = phi i8 [ %25, %23 ], [ %.02853, %10 ]
  %.127.ph = phi i32 [ %24, %23 ], [ %.02654, %10 ]
  %28 = getelementptr inbounds nuw i8, ptr %.03451, i64 1
  %29 = load i8, ptr %28, align 1, !tbaa !25
  %.not = icmp eq i8 %29, 0
  br i1 %.not, label %._crit_edge, label %10, !llvm.loop !92

.thread:                                          ; preds = %20
  %30 = or i8 %.02853, %21
  %31 = getelementptr inbounds nuw i8, ptr %.03152.ph, i64 1
  store i8 %30, ptr %.03152.ph, align 1, !tbaa !25
  %32 = getelementptr inbounds nuw i8, ptr %.03451, i64 1
  %33 = load i8, ptr %32, align 1, !tbaa !25
  %.not65 = icmp eq i8 %33, 0
  br i1 %.not65, label %._crit_edge.thread, label %.outer, !llvm.loop !92

._crit_edge:                                      ; preds = %27
  %34 = icmp eq i32 %.127.ph, 0
  br i1 %34, label %._crit_edge.thread, label %35

35:                                               ; preds = %._crit_edge
  tail call void @CRYPTO_free(ptr noundef nonnull %6, ptr noundef nonnull @.str.396, i32 noundef 374) #15
  br label %39

._crit_edge.thread:                               ; preds = %.thread, %.preheader, %._crit_edge
  %.031.lcssa61 = phi ptr [ %.03152.ph, %._crit_edge ], [ %6, %.preheader ], [ %31, %.thread ]
  %.034.lcssa60 = phi ptr [ %28, %._crit_edge ], [ %3, %.preheader ], [ %32, %.thread ]
  store ptr %.034.lcssa60, ptr %0, align 8, !tbaa !11
  store ptr %6, ptr %1, align 8, !tbaa !11
  %36 = ptrtoint ptr %.031.lcssa61 to i64
  %37 = ptrtoint ptr %6 to i64
  %38 = sub i64 %36, %37
  br label %39

39:                                               ; preds = %26, %2, %._crit_edge.thread, %35
  %.0 = phi i64 [ 0, %26 ], [ 0, %35 ], [ %38, %._crit_edge.thread ], [ -1, %2 ]
  ret i64 %.0
}